target datalayout = "e-m:e-p270:32:32-p271:32:32-p272:64:64-i64:64-i128:128-f80:128-n8:16:32:64-S128"
target triple = "x86_64-pc-linux-gnu"

%struct.SurfaceDataRasInfo = type { %struct.SurfaceDataBounds, ptr, i32, i32, i32, i32, ptr, ptr, ptr, ptr, ptr, ptr, i32, %union.anon.0 }
%struct.SurfaceDataBounds = type { i32, i32, i32, i32 }
%union.anon.0 = type { ptr, [56 x i8] }

; Function Attrs: nounwind uwtable
define hidden void @ThreeByteBgrToIntRgbScaleConvert(ptr noundef %0, ptr noundef %1, i32 noundef %2, i32 noundef %3, i32 noundef %4, i32 noundef %5, i32 noundef %6, i32 noundef %7, i32 noundef %8, ptr noundef %9, ptr noundef %10, ptr noundef %11, ptr noundef %12) #1 {
  %14 = alloca ptr, align 8
  %15 = alloca ptr, align 8
  %16 = alloca i32, align 4
  %17 = alloca i32, align 4
  %18 = alloca i32, align 4
  %19 = alloca i32, align 4
  %20 = alloca i32, align 4
  %21 = alloca i32, align 4
  %22 = alloca i32, align 4
  %23 = alloca ptr, align 8
  %24 = alloca ptr, align 8
  %25 = alloca ptr, align 8
  %26 = alloca ptr, align 8
  %27 = alloca ptr, align 8
  %28 = alloca ptr, align 8
  %29 = alloca i32, align 4
  %30 = alloca i32, align 4
  %31 = alloca i32, align 4
  %32 = alloca i32, align 4
  %33 = alloca i32, align 4
  %34 = alloca i32, align 4
  store ptr %0, ptr %14, align 8
  store ptr %1, ptr %15, align 8
  store i32 %2, ptr %16, align 4
  store i32 %3, ptr %17, align 4
  store i32 %4, ptr %18, align 4
  store i32 %5, ptr %19, align 4
  store i32 %6, ptr %20, align 4
  store i32 %7, ptr %21, align 4
  store i32 %8, ptr %22, align 4
  store ptr %9, ptr %23, align 8
  store ptr %10, ptr %24, align 8
  store ptr %11, ptr %25, align 8
  store ptr %12, ptr %26, align 8
  br label %35

35:                                               ; preds = %13
  %36 = load ptr, ptr %15, align 8
  store ptr %36, ptr %28, align 8
  %37 = load ptr, ptr %23, align 8
  %38 = getelementptr inbounds %struct.SurfaceDataRasInfo, ptr %37, i32 0, i32 4
  %39 = load i32, ptr %38, align 8
  store i32 %39, ptr %29, align 4
  %40 = load ptr, ptr %24, align 8
  %41 = getelementptr inbounds %struct.SurfaceDataRasInfo, ptr %40, i32 0, i32 4
  %42 = load i32, ptr %41, align 8
  store i32 %42, ptr %30, align 4
  %43 = load i32, ptr %16, align 4
  %44 = mul i32 %43, 4
  %45 = load i32, ptr %30, align 4
  %46 = sub i32 %45, %44
  store i32 %46, ptr %30, align 4
  br label %47

47:                                               ; preds = %120, %35
  %48 = load i32, ptr %16, align 4
  store i32 %48, ptr %31, align 4
  %49 = load i32, ptr %18, align 4
  store i32 %49, ptr %32, align 4
  %50 = load ptr, ptr %14, align 8
  %51 = ptrtoint ptr %50 to i64
  %52 = load i32, ptr %19, align 4
  %53 = load i32, ptr %22, align 4
  %54 = ashr i32 %52, %53
  %55 = sext i32 %54 to i64
  %56 = load i32, ptr %29, align 4
  %57 = sext i32 %56 to i64
  %58 = mul nsw i64 %55, %57
  %59 = add nsw i64 %51, %58
  %60 = inttoptr i64 %59 to ptr
  store ptr %60, ptr %27, align 8
  br label %61

61:                                               ; preds = %106, %47
  %62 = load i32, ptr %32, align 4
  %63 = load i32, ptr %22, align 4
  %64 = ashr i32 %62, %63
  store i32 %64, ptr %33, align 4
  br label %65

65:                                               ; preds = %61
  %66 = load ptr, ptr %27, align 8
  %67 = load i32, ptr %33, align 4
  %68 = mul nsw i32 3, %67
  %69 = add nsw i32 %68, 0
  %70 = sext i32 %69 to i64
  %71 = getelementptr inbounds i8, ptr %66, i64 %70
  %72 = load i8, ptr %71, align 1
  %73 = zext i8 %72 to i32
  %74 = shl i32 %73, 0
  %75 = load ptr, ptr %27, align 8
  %76 = load i32, ptr %33, align 4
  %77 = mul nsw i32 3, %76
  %78 = add nsw i32 %77, 1
  %79 = sext i32 %78 to i64
  %80 = getelementptr inbounds i8, ptr %75, i64 %79
  %81 = load i8, ptr %80, align 1
  %82 = zext i8 %81 to i32
  %83 = shl i32 %82, 8
  %84 = or i32 %74, %83
  %85 = load ptr, ptr %27, align 8
  %86 = load i32, ptr %33, align 4
  %87 = mul nsw i32 3, %86
  %88 = add nsw i32 %87, 2
  %89 = sext i32 %88 to i64
  %90 = getelementptr inbounds i8, ptr %85, i64 %89
  %91 = load i8, ptr %90, align 1
  %92 = zext i8 %91 to i32
  %93 = shl i32 %92, 16
  %94 = or i32 %84, %93
  store i32 %94, ptr %34, align 4
  %95 = load i32, ptr %34, align 4
  %96 = load ptr, ptr %28, align 8
  %97 = getelementptr inbounds i32, ptr %96, i64 0
  store i32 %95, ptr %97, align 4
  br label %98

98:                                               ; preds = %65
  %99 = load ptr, ptr %28, align 8
  %100 = ptrtoint ptr %99 to i64
  %101 = add nsw i64 %100, 4
  %102 = inttoptr i64 %101 to ptr
  store ptr %102, ptr %28, align 8
  %103 = load i32, ptr %20, align 4
  %104 = load i32, ptr %32, align 4
  %105 = add nsw i32 %104, %103
  store i32 %105, ptr %32, align 4
  br label %106

106:                                              ; preds = %98
  %107 = load i32, ptr %31, align 4
  %108 = add i32 %107, -1
  store i32 %108, ptr %31, align 4
  %109 = icmp ugt i32 %108, 0
  br i1 %109, label %61, label %110, !llvm.loop !15

110:                                              ; preds = %106
  %111 = load ptr, ptr %28, align 8
  %112 = ptrtoint ptr %111 to i64
  %113 = load i32, ptr %30, align 4
  %114 = sext i32 %113 to i64
  %115 = add nsw i64 %112, %114
  %116 = inttoptr i64 %115 to ptr
  store ptr %116, ptr %28, align 8
  %117 = load i32, ptr %21, align 4
  %118 = load i32, ptr %19, align 4
  %119 = add nsw i32 %118, %117
  store i32 %119, ptr %19, align 4
  br label %120

120:                                              ; preds = %110
  %121 = load i32, ptr %17, align 4
  %122 = add i32 %121, -1
  store i32 %122, ptr %17, align 4
  %123 = icmp ugt i32 %122, 0
  br i1 %123, label %47, label %124, !llvm.loop !16

124:                                              ; preds = %120
  br label %125

125:                                              ; preds = %124
  ret void
}